target datalayout = "e-m:e-p270:32:32-p271:32:32-p272:64:64-i64:64-i128:128-f80:128-n8:16:32:64-S128"
target triple = "x86_64-pc-linux-gnu"

%"class.llvm::SmallVectorBase" = type { ptr, i32, i32 }
%"class.clang::QualType" = type { %"class.llvm::PointerIntPair" }
%"class.llvm::PointerIntPair" = type { %"struct.llvm::detail::PunnedPointer" }
%"struct.llvm::detail::PunnedPointer" = type { [8 x i8] }
%"class.llvm::SmallVectorImpl.118" = type { %"class.llvm::SmallVectorTemplateBase.119" }
%"class.llvm::SmallVectorTemplateBase.119" = type { %"class.llvm::SmallVectorTemplateCommon.120" }
%"class.llvm::SmallVectorTemplateCommon.120" = type { %"class.llvm::SmallVectorBase" }
%"class.llvm::SmallPtrSet.1174" = type { %"class.llvm::SmallPtrSetImpl.base.1176", [4 x ptr] }
%"class.llvm::SmallPtrSetImpl.base.1176" = type { %"class.llvm::SmallPtrSetImplBase.base" }
%"class.llvm::SmallPtrSetImplBase.base" = type <{ ptr, ptr, i32, i32, i32 }>
%"class.llvm::SetVector.929" = type { %"class.llvm::DenseSet.930", %"class.llvm::SmallVector.935" }
%"class.llvm::DenseSet.930" = type { %"class.llvm::detail::DenseSetImpl.931" }
%"class.llvm::detail::DenseSetImpl.931" = type { %"class.llvm::DenseMap.932" }
%"class.llvm::DenseMap.932" = type <{ ptr, i32, i32, i32, [4 x i8] }>
%"class.llvm::SmallVector.935" = type { %"class.llvm::SmallVectorImpl.118" }
%"class.llvm::SmallDenseMap.1137" = type { i32, i32, %"struct.llvm::AlignedCharArrayUnion.1139" }
%"struct.llvm::AlignedCharArrayUnion.1139" = type { [64 x i8] }
%"class.clang::Stmt" = type { %union.anon.122 }
%union.anon.122 = type { %"class.clang::Stmt::PseudoObjectExprBitfields" }
%"class.clang::Stmt::PseudoObjectExprBitfields" = type { i64 }
%"class.clang::Expr" = type { %"class.clang::ValueStmt", %"class.clang::QualType" }
%"class.clang::ValueStmt" = type { %"class.clang::Stmt" }
%"class.(anonymous namespace)::CheckVarsEscapingDeclContext" = type <{ ptr, ptr, %"class.llvm::SetVector.929", %"class.llvm::SetVector.929", %"class.llvm::SetVector.929", %"class.llvm::SmallPtrSet.1174", ptr, %"class.llvm::SmallDenseMap.1137", i8, i8, [6 x i8] }>
%"class.clang::CastExpr" = type { %"class.clang::Expr", ptr }

; Function Attrs: mustprogress nounwind uwtable
define linkonce_odr hidden noundef ptr @_ZN4llvm16cast_convert_valIN5clang4ExprEPNS1_4StmtES4_E4doitEPKS3_(ptr noundef %0) #0 comdat align 2 {
  %2 = alloca ptr, align 8
  store ptr %0, ptr %2, align 8
  %3 = load ptr, ptr %2, align 8
  ret ptr %3
}

; Function Attrs: mustprogress nounwind uwtable
define linkonce_odr hidden noundef ptr @_ZN4llvm8CastInfoIN5clang4ExprEPNS1_4StmtEvE6doCastERKS4_(ptr noundef nonnull align 8 dereferenceable(8) %0) #0 comdat align 2 {
  %2 = alloca ptr, align 8
  store ptr %0, ptr %2, align 8
  %3 = load ptr, ptr %2, align 8
  %4 = load ptr, ptr %3, align 8
  %5 = call noundef ptr @_ZN4llvm16cast_convert_valIN5clang4ExprEPNS1_4StmtES4_E4doitEPKS3_(ptr noundef %4)
  ret ptr %5
}

; Function Attrs: mustprogress nounwind uwtable
define linkonce_odr hidden noundef ptr @_ZN4llvm4castIN5clang4ExprENS1_4StmtEEEDcPT0_(ptr noundef %0) #0 comdat {
  %2 = alloca ptr, align 8
  store ptr %0, ptr %2, align 8
  %3 = call noundef ptr @_ZN4llvm8CastInfoIN5clang4ExprEPNS1_4StmtEvE6doCastERKS4_(ptr noundef nonnull align 8 dereferenceable(8) %2)
  ret ptr %3
}

; Function Attrs: mustprogress nounwind uwtable
define linkonce_odr hidden noundef ptr @_ZNK5clang8CastExpr10getSubExprEv(ptr noundef nonnull align 8 dereferenceable(24) %0) #0 comdat align 2 {
  %2 = alloca ptr, align 8
  store ptr %0, ptr %2, align 8
  %3 = load ptr, ptr %2, align 8
  %4 = getelementptr inbounds nuw %"class.clang::CastExpr", ptr %3, i32 0, i32 1
  %5 = load ptr, ptr %4, align 8
  %6 = call noundef ptr @_ZN4llvm4castIN5clang4ExprENS1_4StmtEEEDcPT0_(ptr noundef %5)
  ret ptr %6
}

; Function Attrs: mustprogress nounwind uwtable
define linkonce_odr hidden noundef i32 @_ZNK5clang8CastExpr11getCastKindEv(ptr noundef nonnull align 8 dereferenceable(24) %0) #0 comdat align 2 {
  %2 = alloca ptr, align 8
  store ptr %0, ptr %2, align 8
  %3 = load ptr, ptr %2, align 8
  %4 = getelementptr inbounds nuw %"class.clang::Stmt", ptr %3, i32 0, i32 0
  %5 = load i32, ptr %4, align 8
  %6 = lshr i32 %5, 18
  %7 = and i32 %6, 127
  ret i32 %7
}

; Function Attrs: mustprogress nounwind uwtable
define internal void @_ZN12_GLOBAL__N_128CheckVarsEscapingDeclContext21VisitImplicitCastExprEPKN5clang16ImplicitCastExprE(ptr noundef nonnull align 8 dereferenceable(288) %0, ptr noundef %1) #0 align 2 {
  %3 = alloca ptr, align 8
  %4 = alloca ptr, align 8
  %5 = alloca i8, align 1
  store ptr %0, ptr %3, align 8
  store ptr %1, ptr %4, align 8
  %6 = load ptr, ptr %3, align 8
  %7 = load ptr, ptr %4, align 8
  %8 = icmp ne ptr %7, null
  br i1 %8, label %10, label %9

9:                                                ; preds = %2
  br label %29

10:                                               ; preds = %2
  %11 = load ptr, ptr %4, align 8
  %12 = call noundef i32 @_ZNK5clang8CastExpr11getCastKindEv(ptr noundef nonnull align 8 dereferenceable(24) %11)
  %13 = icmp eq i32 %12, 11
  br i1 %13, label %14, label %26

14:                                               ; preds = %10
  %15 = getelementptr inbounds nuw %"class.(anonymous namespace)::CheckVarsEscapingDeclContext", ptr %6, i32 0, i32 8
  %16 = load i8, ptr %15, align 8
  %17 = trunc i8 %16 to i1
  %18 = zext i1 %17 to i8
  store i8 %18, ptr %5, align 1
  %19 = getelementptr inbounds nuw %"class.(anonymous namespace)::CheckVarsEscapingDeclContext", ptr %6, i32 0, i32 8
  store i8 1, ptr %19, align 8
  %20 = load ptr, ptr %4, align 8
  %21 = call noundef ptr @_ZNK5clang8CastExpr10getSubExprEv(ptr noundef nonnull align 8 dereferenceable(24) %20)
  call void @_ZN5clang15StmtVisitorBaseIN4llvm14make_const_ptrEN12_GLOBAL__N_128CheckVarsEscapingDeclContextEvJEE5VisitEPKNS_4StmtE(ptr noundef nonnull align 1 dereferenceable(1) %6, ptr noundef %21)
  %22 = load i8, ptr %5, align 1
  %23 = trunc i8 %22 to i1
  %24 = getelementptr inbounds nuw %"class.(anonymous namespace)::CheckVarsEscapingDeclContext", ptr %6, i32 0, i32 8
  %25 = zext i1 %23 to i8
  store i8 %25, ptr %24, align 8
  br label %29

26:                                               ; preds = %10
  %27 = load ptr, ptr %4, align 8
  %28 = call noundef ptr @_ZNK5clang8CastExpr10getSubExprEv(ptr noundef nonnull align 8 dereferenceable(24) %27)
  call void @_ZN5clang15StmtVisitorBaseIN4llvm14make_const_ptrEN12_GLOBAL__N_128CheckVarsEscapingDeclContextEvJEE5VisitEPKNS_4StmtE(ptr noundef nonnull align 1 dereferenceable(1) %6, ptr noundef %28)
  br label %29

29:                                               ; preds = %26, %14, %9
  ret void
}